; Function Attrs: nounwind uwtable
define internal ptr @wrapperdescr_call(ptr noundef readonly captures(none) %0, ptr noundef %1, ptr noundef %2) #0 {
  %4 = getelementptr i8, ptr %1, i64 16
  %.val25 = load i64, ptr %4, align 8, !tbaa !36
  %5 = icmp slt i64 %.val25, 1
  br i1 %5, label %6, label %18

6:                                                ; preds = %3
  %7 = load ptr, ptr @PyExc_TypeError, align 8, !tbaa !30
  %8 = getelementptr i8, ptr %0, i64 24
  %.val23 = load ptr, ptr %8, align 8, !tbaa !17
  %.not.i26 = icmp eq ptr %.val23, null
  br i1 %.not.i26, label %descr_name.exit, label %9

9:                                                ; preds = %6
  %10 = getelementptr i8, ptr %.val23, i64 8
  %.val.i = load ptr, ptr %10, align 8, !tbaa !19
  %11 = getelementptr i8, ptr %.val.i, i64 168
  %.val6.i = load i64, ptr %11, align 8, !tbaa !20
  %12 = and i64 %.val6.i, 268435456
  %.not5.i = icmp eq i64 %12, 0
  %spec.select.i = select i1 %.not5.i, ptr null, ptr %.val23
  br label %descr_name.exit

descr_name.exit:                                  ; preds = %6, %9
  %.0.i = phi ptr [ null, %6 ], [ %spec.select.i, %9 ]
  %13 = getelementptr inbounds nuw i8, ptr %0, i64 16
  %14 = load ptr, ptr %13, align 8, !tbaa !10
  %15 = getelementptr inbounds nuw i8, ptr %14, i64 24
  %16 = load ptr, ptr %15, align 8, !tbaa !29
  %17 = tail call ptr (ptr, ptr, ...) @PyErr_Format(ptr noundef %7, ptr noundef nonnull @.str.27, ptr noundef %.0.i, ptr noundef nonnull @.str.12, ptr noundef %16) #9
  br label %Py_DECREF.exit

18:                                               ; preds = %3
  %19 = getelementptr inbounds nuw i8, ptr %1, i64 24
  %20 = load ptr, ptr %19, align 8, !tbaa !30
  %21 = getelementptr i8, ptr %20, i64 8
  %.val = load ptr, ptr %21, align 8, !tbaa !19
  %22 = getelementptr inbounds nuw i8, ptr %0, i64 16
  %23 = load ptr, ptr %22, align 8, !tbaa !10
  %24 = tail call i32 @_PyObject_RealIsSubclass(ptr noundef %.val, ptr noundef %23) #9
  %.not = icmp eq i32 %24, 0
  br i1 %.not, label %25, label %38

25:                                               ; preds = %18
  %26 = load ptr, ptr @PyExc_TypeError, align 8, !tbaa !30
  %27 = getelementptr i8, ptr %0, i64 24
  %.val24 = load ptr, ptr %27, align 8, !tbaa !17
  %.not.i27 = icmp eq ptr %.val24, null
  br i1 %.not.i27, label %descr_name.exit33, label %28

28:                                               ; preds = %25
  %29 = getelementptr i8, ptr %.val24, i64 8
  %.val.i28 = load ptr, ptr %29, align 8, !tbaa !19
  %30 = getelementptr i8, ptr %.val.i28, i64 168
  %.val6.i29 = load i64, ptr %30, align 8, !tbaa !20
  %31 = and i64 %.val6.i29, 268435456
  %.not5.i30 = icmp eq i64 %31, 0
  %spec.select.i31 = select i1 %.not5.i30, ptr null, ptr %.val24
  br label %descr_name.exit33

descr_name.exit33:                                ; preds = %25, %28
  %.0.i32 = phi ptr [ null, %25 ], [ %spec.select.i31, %28 ]
  %32 = load ptr, ptr %22, align 8, !tbaa !10
  %33 = getelementptr inbounds nuw i8, ptr %32, i64 24
  %34 = load ptr, ptr %33, align 8, !tbaa !29
  %.val22 = load ptr, ptr %21, align 8, !tbaa !19
  %35 = getelementptr inbounds nuw i8, ptr %.val22, i64 24
  %36 = load ptr, ptr %35, align 8, !tbaa !29
  %37 = tail call ptr (ptr, ptr, ...) @PyErr_Format(ptr noundef %26, ptr noundef nonnull @.str.38, ptr noundef %.0.i32, ptr noundef nonnull @.str.12, ptr noundef %34, ptr noundef %36) #9
  br label %Py_DECREF.exit

38:                                               ; preds = %18
  %39 = tail call ptr @PyTuple_GetSlice(ptr noundef nonnull %1, i64 noundef 1, i64 noundef %.val25) #9
  %40 = icmp eq ptr %39, null
  br i1 %40, label %Py_DECREF.exit, label %41

41:                                               ; preds = %38
  %42 = getelementptr inbounds nuw i8, ptr %0, i64 40
  %43 = load ptr, ptr %42, align 8, !tbaa !48
  %44 = getelementptr inbounds nuw i8, ptr %43, i64 24
  %45 = load ptr, ptr %44, align 8, !tbaa !51
  %46 = getelementptr inbounds nuw i8, ptr %43, i64 40
  %47 = load i32, ptr %46, align 8, !tbaa !53
  %48 = and i32 %47, 1
  %.not.i34 = icmp eq i32 %48, 0
  br i1 %.not.i34, label %53, label %49

49:                                               ; preds = %41
  %50 = getelementptr inbounds nuw i8, ptr %0, i64 48
  %51 = load ptr, ptr %50, align 8, !tbaa !54
  %52 = tail call ptr %45(ptr noundef nonnull %20, ptr noundef nonnull %39, ptr noundef %51, ptr noundef %2) #9
  br label %wrapperdescr_raw_call.exit

53:                                               ; preds = %41
  %.not18.i = icmp eq ptr %2, null
  br i1 %.not18.i, label %64, label %54

54:                                               ; preds = %53
  %55 = getelementptr i8, ptr %2, i64 8
  %.val.i36 = load ptr, ptr %55, align 8, !tbaa !19
  %56 = getelementptr i8, ptr %.val.i36, i64 168
  %.val21.i = load i64, ptr %56, align 8, !tbaa !20
  %57 = and i64 %.val21.i, 536870912
  %.not19.i = icmp eq i64 %57, 0
  br i1 %.not19.i, label %60, label %58

58:                                               ; preds = %54
  %59 = getelementptr i8, ptr %2, i64 16
  %.val22.i = load i64, ptr %59, align 8, !tbaa !55
  %.not20.i = icmp eq i64 %.val22.i, 0
  br i1 %.not20.i, label %64, label %60

60:                                               ; preds = %58, %54
  %61 = load ptr, ptr @PyExc_TypeError, align 8, !tbaa !30
  %62 = load ptr, ptr %43, align 8, !tbaa !59
  %63 = tail call ptr (ptr, ptr, ...) @PyErr_Format(ptr noundef %61, ptr noundef nonnull @.str.39, ptr noundef %62) #9
  br label %wrapperdescr_raw_call.exit

64:                                               ; preds = %58, %53
  %65 = getelementptr inbounds nuw i8, ptr %0, i64 48
  %66 = load ptr, ptr %65, align 8, !tbaa !54
  %67 = tail call ptr %45(ptr noundef nonnull %20, ptr noundef nonnull %39, ptr noundef %66) #9
  br label %wrapperdescr_raw_call.exit

wrapperdescr_raw_call.exit:                       ; preds = %49, %60, %64
  %.0.i35 = phi ptr [ %52, %49 ], [ null, %60 ], [ %67, %64 ]
  %68 = load i32, ptr %39, align 8, !tbaa !16
  %.not.i = icmp sgt i32 %68, -1
  br i1 %.not.i, label %69, label %Py_DECREF.exit

69:                                               ; preds = %wrapperdescr_raw_call.exit
  %70 = add nsw i32 %68, -1
  store i32 %70, ptr %39, align 8, !tbaa !16
  %71 = icmp eq i32 %70, 0
  br i1 %71, label %72, label %Py_DECREF.exit

72:                                               ; preds = %69
  tail call void @_Py_Dealloc(ptr noundef nonnull %39) #9
  br label %Py_DECREF.exit

Py_DECREF.exit:                                   ; preds = %72, %69, %wrapperdescr_raw_call.exit, %38, %descr_name.exit33, %descr_name.exit
  %.0 = phi ptr [ null, %descr_name.exit ], [ null, %descr_name.exit33 ], [ null, %38 ], [ %.0.i35, %wrapperdescr_raw_call.exit ], [ %.0.i35, %69 ], [ %.0.i35, %72 ]
  ret ptr %.0
}